target datalayout = "e-m:e-p270:32:32-p271:32:32-p272:64:64-i64:64-i128:128-f80:128-n8:16:32:64-S128"
target triple = "x86_64-unknown-linux-gnu"

%"class.re2::Regexp" = type { i8, i8, i16, i16, i16, %union.anon, ptr, %union.anon.0 }
%union.anon = type { ptr }
%union.anon.0 = type { %struct.anon.1 }
%struct.anon.1 = type { i32, ptr }
%struct.anon = type { i32, i32 }

; Function Attrs: mustprogress nounwind uwtable
define linkonce_odr noundef i32 @_ZN3re26Regexp3minEv(ptr noundef nonnull align 8 dereferenceable(40) %this) #1 comdat align 2 {
entry:
  %this.addr = alloca ptr, align 8
  store ptr %this, ptr %this.addr, align 8
  %this1 = load ptr, ptr %this.addr, align 8
  %0 = getelementptr inbounds %"class.re2::Regexp", ptr %this1, i32 0, i32 7
  %min_ = getelementptr inbounds %struct.anon, ptr %0, i32 0, i32 1
  %1 = load i32, ptr %min_, align 4
  ret i32 %1
}

; Function Attrs: mustprogress nounwind uwtable
define linkonce_odr noundef i32 @_ZN3re26Regexp2opEv(ptr noundef nonnull align 8 dereferenceable(40) %this) #1 comdat align 2 {
entry:
  %this.addr = alloca ptr, align 8
  store ptr %this, ptr %this.addr, align 8
  %this1 = load ptr, ptr %this.addr, align 8
  %op_ = getelementptr inbounds %"class.re2::Regexp", ptr %this1, i32 0, i32 0
  %0 = load i8, ptr %op_, align 8
  %conv = zext i8 %0 to i32
  ret i32 %conv
}

; Function Attrs: mustprogress uwtable
define noundef zeroext i1 @_ZN3re217EmptyStringWalker9PostVisitEPNS_6RegexpEbbPbi(ptr noundef nonnull align 8 dereferenceable(96) %this, ptr noundef %re, i1 noundef zeroext %parent_arg, i1 noundef zeroext %pre_arg, ptr noundef %child_args, i32 noundef %nchild_args) unnamed_addr #0 align 2 {
entry:
  %retval = alloca i1, align 1
  %this.addr = alloca ptr, align 8
  %re.addr = alloca ptr, align 8
  %parent_arg.addr = alloca i8, align 1
  %pre_arg.addr = alloca i8, align 1
  %child_args.addr = alloca ptr, align 8
  %nchild_args.addr = alloca i32, align 4
  %i = alloca i32, align 4
  %i6 = alloca i32, align 4
  store ptr %this, ptr %this.addr, align 8
  store ptr %re, ptr %re.addr, align 8
  %frombool = zext i1 %parent_arg to i8
  store i8 %frombool, ptr %parent_arg.addr, align 1
  %frombool1 = zext i1 %pre_arg to i8
  store i8 %frombool1, ptr %pre_arg.addr, align 1
  store ptr %child_args, ptr %child_args.addr, align 8
  store i32 %nchild_args, ptr %nchild_args.addr, align 4
  %0 = load ptr, ptr %re.addr, align 8
  %call = call noundef i32 @_ZN3re26Regexp2opEv(ptr noundef nonnull align 8 dereferenceable(40) %0)
  switch i32 %call, label %sw.epilog [
    i32 1, label %sw.bb
    i32 3, label %sw.bb
    i32 12, label %sw.bb
    i32 13, label %sw.bb
    i32 20, label %sw.bb
    i32 4, label %sw.bb
    i32 2, label %sw.bb3
    i32 14, label %sw.bb3
    i32 15, label %sw.bb3
    i32 17, label %sw.bb3
    i32 16, label %sw.bb3
    i32 18, label %sw.bb3
    i32 19, label %sw.bb3
    i32 7, label %sw.bb3
    i32 9, label %sw.bb3
    i32 21, label %sw.bb3
    i32 5, label %sw.bb4
    i32 6, label %sw.bb5
    i32 8, label %sw.bb18
    i32 11, label %sw.bb18
    i32 10, label %sw.bb21
  ]

sw.bb:                                            ; preds = %entry, %entry, %entry, %entry, %entry, %entry
  store i1 false, ptr %retval, align 1
  br label %return

sw.bb3:                                           ; preds = %entry, %entry, %entry, %entry, %entry, %entry, %entry, %entry, %entry, %entry
  store i1 true, ptr %retval, align 1
  br label %return

sw.bb4:                                           ; preds = %entry
  store i32 0, ptr %i, align 4
  br label %for.cond

for.cond:                                         ; preds = %for.inc, %sw.bb4
  %1 = load i32, ptr %i, align 4
  %2 = load i32, ptr %nchild_args.addr, align 4
  %cmp = icmp slt i32 %1, %2
  br i1 %cmp, label %for.body, label %for.end

for.body:                                         ; preds = %for.cond
  %3 = load ptr, ptr %child_args.addr, align 8
  %4 = load i32, ptr %i, align 4
  %idxprom = sext i32 %4 to i64
  %arrayidx = getelementptr inbounds i8, ptr %3, i64 %idxprom
  %5 = load i8, ptr %arrayidx, align 1
  %tobool = trunc i8 %5 to i1
  br i1 %tobool, label %if.end, label %if.then

if.then:                                          ; preds = %for.body
  store i1 false, ptr %retval, align 1
  br label %return

if.end:                                           ; preds = %for.body
  br label %for.inc

for.inc:                                          ; preds = %if.end
  %6 = load i32, ptr %i, align 4
  %inc = add nsw i32 %6, 1
  store i32 %inc, ptr %i, align 4
  br label %for.cond, !llvm.loop !6

for.end:                                          ; preds = %for.cond
  store i1 true, ptr %retval, align 1
  br label %return

sw.bb5:                                           ; preds = %entry
  store i32 0, ptr %i6, align 4
  br label %for.cond7

for.cond7:                                        ; preds = %for.inc15, %sw.bb5
  %7 = load i32, ptr %i6, align 4
  %8 = load i32, ptr %nchild_args.addr, align 4
  %cmp8 = icmp slt i32 %7, %8
  br i1 %cmp8, label %for.body9, label %for.end17

for.body9:                                        ; preds = %for.cond7
  %9 = load ptr, ptr %child_args.addr, align 8
  %10 = load i32, ptr %i6, align 4
  %idxprom10 = sext i32 %10 to i64
  %arrayidx11 = getelementptr inbounds i8, ptr %9, i64 %idxprom10
  %11 = load i8, ptr %arrayidx11, align 1
  %tobool12 = trunc i8 %11 to i1
  br i1 %tobool12, label %if.then13, label %if.end14

if.then13:                                        ; preds = %for.body9
  store i1 true, ptr %retval, align 1
  br label %return

if.end14:                                         ; preds = %for.body9
  br label %for.inc15

for.inc15:                                        ; preds = %if.end14
  %12 = load i32, ptr %i6, align 4
  %inc16 = add nsw i32 %12, 1
  store i32 %inc16, ptr %i6, align 4
  br label %for.cond7, !llvm.loop !7

for.end17:                                        ; preds = %for.cond7
  store i1 false, ptr %retval, align 1
  br label %return

sw.bb18:                                          ; preds = %entry, %entry
  %13 = load ptr, ptr %child_args.addr, align 8
  %arrayidx19 = getelementptr inbounds i8, ptr %13, i64 0
  %14 = load i8, ptr %arrayidx19, align 1
  %tobool20 = trunc i8 %14 to i1
  store i1 %tobool20, ptr %retval, align 1
  br label %return

sw.bb21:                                          ; preds = %entry
  %15 = load ptr, ptr %child_args.addr, align 8
  %arrayidx22 = getelementptr inbounds i8, ptr %15, i64 0
  %16 = load i8, ptr %arrayidx22, align 1
  %tobool23 = trunc i8 %16 to i1
  br i1 %tobool23, label %lor.end, label %lor.rhs

lor.rhs:                                          ; preds = %sw.bb21
  %17 = load ptr, ptr %re.addr, align 8
  %call24 = call noundef i32 @_ZN3re26Regexp3minEv(ptr noundef nonnull align 8 dereferenceable(40) %17)
  %cmp25 = icmp eq i32 %call24, 0
  br label %lor.end

lor.end:                                          ; preds = %lor.rhs, %sw.bb21
  %18 = phi i1 [ true, %sw.bb21 ], [ %cmp25, %lor.rhs ]
  store i1 %18, ptr %retval, align 1
  br label %return

sw.epilog:                                        ; preds = %entry
  store i1 false, ptr %retval, align 1
  br label %return

return:                                           ; preds = %sw.epilog, %lor.end, %sw.bb18, %for.end17, %if.then13, %for.end, %if.then, %sw.bb3, %sw.bb
  %19 = load i1, ptr %retval, align 1
  ret i1 %19
}