; Function Attrs: mustprogress nofree norecurse nosync nounwind willreturn memory(argmem: read) uwtable
define noundef zeroext i1 @_ZN3re217EmptyStringWalker9PostVisitEPNS_6RegexpEbbPbi(ptr nocapture nonnull readnone align 8 %this, ptr nocapture noundef readonly %re, i1 zeroext %parent_arg, i1 zeroext %pre_arg, ptr nocapture noundef readonly %child_args, i32 noundef %nchild_args) unnamed_addr #2 align 2 {
entry:
  %0 = load i8, ptr %re, align 8
  switch i8 %0, label %return [
    i8 10, label %sw.bb21
    i8 11, label %sw.bb18
    i8 8, label %sw.bb18
    i8 6, label %for.cond7.preheader
    i8 5, label %for.cond.preheader
    i8 21, label %sw.bb3
    i8 2, label %sw.bb3
    i8 14, label %sw.bb3
    i8 15, label %sw.bb3
    i8 17, label %sw.bb3
    i8 16, label %sw.bb3
    i8 18, label %sw.bb3
    i8 19, label %sw.bb3
    i8 7, label %sw.bb3
    i8 9, label %sw.bb3
  ]

for.cond.preheader:                               ; preds = %entry
  %cmp12 = icmp sgt i32 %nchild_args, 0
  br i1 %cmp12, label %for.body.preheader, label %return

for.body.preheader:                               ; preds = %for.cond.preheader
  %wide.trip.count = zext nneg i32 %nchild_args to i64
  br label %for.body

for.cond7.preheader:                              ; preds = %entry
  %cmp815 = icmp sgt i32 %nchild_args, 0
  br i1 %cmp815, label %for.body9.preheader, label %return

for.body9.preheader:                              ; preds = %for.cond7.preheader
  %wide.trip.count25 = zext nneg i32 %nchild_args to i64
  br label %for.body9

sw.bb3:                                           ; preds = %entry, %entry, %entry, %entry, %entry, %entry, %entry, %entry, %entry, %entry
  br label %return

for.body:                                         ; preds = %for.body, %for.body.preheader
  %indvars.iv = phi i64 [ 0, %for.body.preheader ], [ %indvars.iv.next, %for.body ]
  %arrayidx = getelementptr inbounds i8, ptr %child_args, i64 %indvars.iv
  %1 = load i8, ptr %arrayidx, align 1
  %2 = and i8 %1, 1
  %tobool.not.not = icmp ne i8 %2, 0
  %indvars.iv.next = add nuw nsw i64 %indvars.iv, 1
  %exitcond.not = icmp ne i64 %indvars.iv.next, %wide.trip.count
  %or.cond.not = select i1 %tobool.not.not, i1 %exitcond.not, i1 false
  br i1 %or.cond.not, label %for.body, label %return, !llvm.loop !7

for.body9:                                        ; preds = %for.body9, %for.body9.preheader
  %indvars.iv22 = phi i64 [ 0, %for.body9.preheader ], [ %indvars.iv.next23, %for.body9 ]
  %arrayidx11 = getelementptr inbounds i8, ptr %child_args, i64 %indvars.iv22
  %3 = load i8, ptr %arrayidx11, align 1
  %4 = and i8 %3, 1
  %tobool12.not.not = icmp ne i8 %4, 0
  %indvars.iv.next23 = add nuw nsw i64 %indvars.iv22, 1
  %exitcond26.not = icmp eq i64 %indvars.iv.next23, %wide.trip.count25
  %or.cond31 = select i1 %tobool12.not.not, i1 true, i1 %exitcond26.not
  br i1 %or.cond31, label %return, label %for.body9, !llvm.loop !8

sw.bb18:                                          ; preds = %entry, %entry
  %5 = load i8, ptr %child_args, align 1
  %6 = and i8 %5, 1
  %tobool20 = icmp ne i8 %6, 0
  br label %return

sw.bb21:                                          ; preds = %entry
  %7 = load i8, ptr %child_args, align 1
  %8 = and i8 %7, 1
  %tobool23.not = icmp eq i8 %8, 0
  br i1 %tobool23.not, label %lor.rhs, label %return

lor.rhs:                                          ; preds = %sw.bb21
  %min_.i = getelementptr inbounds i8, ptr %re, i64 28
  %9 = load i32, ptr %min_.i, align 4
  %cmp25 = icmp eq i32 %9, 0
  br label %return

return:                                           ; preds = %for.body, %for.body9, %for.cond.preheader, %for.cond7.preheader, %entry, %sw.bb21, %lor.rhs, %sw.bb18, %sw.bb3
  %retval.0 = phi i1 [ %tobool20, %sw.bb18 ], [ true, %sw.bb3 ], [ true, %sw.bb21 ], [ %cmp25, %lor.rhs ], [ false, %entry ], [ false, %for.cond7.preheader ], [ true, %for.cond.preheader ], [ %tobool12.not.not, %for.body9 ], [ %tobool.not.not, %for.body ]
  ret i1 %retval.0
}